#include <math.h>
#include <stdio.h>
#include <stdlib.h>
#include <string.h>


int main(int argc, char *argv[])
{
  int m,n,p,q,sum=0,i,j,k,ii,jj;
  int a[100][100],b[100][100],c[100][100];
  scanf("%d %d",&m,&n);
  for(i=0;i<m;i++)
  {
    for(j=0;j<n;j++)scanf("%d",&a[i][j]);                
  }
  scanf("%d %d",&p,&q);
  for(i=0;i<p;i++)
  {
    for(j=0;j<q;j++)scanf("%d",&b[i][j]);            
  }/*input*/
  
  for(i=0;i<m;i++)
  {
    for(j=0;j<q;j++)
    {
       for(ii=0;ii<n;ii++)
       {
         sum=sum+(a[i][ii]*b[ii][j]);                   
       }              
       c[i][j]=sum;
       sum=0; 
    }                
  }/*mluti*/
  
  for(i=0;i<m;i++)
  {
    for(j=0;j<q-1;j++)
    {
      printf("%d ",c[i][j]);                  
    }
    printf("%d\n",c[i][q-1]);                  
  }
  
 
  	
  return 0;
}
