; ModuleID = '63/1344.c'
source_filename = "63/1344.c"
target datalayout = "e-m:e-p270:32:32-p271:32:32-p272:64:64-i64:64-f80:128-n8:16:32:64-S128"
target triple = "x86_64-pc-linux-gnu"

@.str = private unnamed_addr constant [6 x i8] c"%d %d\00", align 1
@.str.1 = private unnamed_addr constant [3 x i8] c"%d\00", align 1
@.str.2 = private unnamed_addr constant [4 x i8] c"%d \00", align 1
@.str.3 = private unnamed_addr constant [4 x i8] c"%d\0A\00", align 1

; Function Attrs: noinline nounwind uwtable
define dso_local i32 @main(i32 %0, i8** %1) #0 {
  %3 = alloca i32, align 4
  %4 = alloca i32, align 4
  %5 = alloca i8**, align 8
  %6 = alloca i32, align 4
  %7 = alloca i32, align 4
  %8 = alloca i32, align 4
  %9 = alloca i32, align 4
  %10 = alloca i32, align 4
  %11 = alloca i32, align 4
  %12 = alloca i32, align 4
  %13 = alloca i32, align 4
  %14 = alloca i32, align 4
  %15 = alloca i32, align 4
  %16 = alloca [100 x [100 x i32]], align 16
  %17 = alloca [100 x [100 x i32]], align 16
  %18 = alloca [100 x [100 x i32]], align 16
  store i32 0, i32* %3, align 4
  store i32 %0, i32* %4, align 4
  store i8** %1, i8*** %5, align 8
  store i32 0, i32* %10, align 4
  %19 = call i32 (i8*, ...) @__isoc99_scanf(i8* getelementptr inbounds ([6 x i8], [6 x i8]* @.str, i64 0, i64 0), i32* %6, i32* %7)
  store i32 0, i32* %11, align 4
  br label %20

20:                                               ; preds = %41, %2
  %21 = load i32, i32* %11, align 4
  %22 = load i32, i32* %6, align 4
  %23 = icmp slt i32 %21, %22
  br i1 %23, label %24, label %44

24:                                               ; preds = %20
  store i32 0, i32* %12, align 4
  br label %25

25:                                               ; preds = %37, %24
  %26 = load i32, i32* %12, align 4
  %27 = load i32, i32* %7, align 4
  %28 = icmp slt i32 %26, %27
  br i1 %28, label %29, label %40

29:                                               ; preds = %25
  %30 = load i32, i32* %11, align 4
  %31 = sext i32 %30 to i64
  %32 = getelementptr inbounds [100 x [100 x i32]], [100 x [100 x i32]]* %16, i64 0, i64 %31
  %33 = load i32, i32* %12, align 4
  %34 = sext i32 %33 to i64
  %35 = getelementptr inbounds [100 x i32], [100 x i32]* %32, i64 0, i64 %34
  %36 = call i32 (i8*, ...) @__isoc99_scanf(i8* getelementptr inbounds ([3 x i8], [3 x i8]* @.str.1, i64 0, i64 0), i32* %35)
  br label %37

37:                                               ; preds = %29
  %38 = load i32, i32* %12, align 4
  %39 = add nsw i32 %38, 1
  store i32 %39, i32* %12, align 4
  br label %25

40:                                               ; preds = %25
  br label %41

41:                                               ; preds = %40
  %42 = load i32, i32* %11, align 4
  %43 = add nsw i32 %42, 1
  store i32 %43, i32* %11, align 4
  br label %20

44:                                               ; preds = %20
  %45 = call i32 (i8*, ...) @__isoc99_scanf(i8* getelementptr inbounds ([6 x i8], [6 x i8]* @.str, i64 0, i64 0), i32* %8, i32* %9)
  store i32 0, i32* %11, align 4
  br label %46

46:                                               ; preds = %67, %44
  %47 = load i32, i32* %11, align 4
  %48 = load i32, i32* %8, align 4
  %49 = icmp slt i32 %47, %48
  br i1 %49, label %50, label %70

50:                                               ; preds = %46
  store i32 0, i32* %12, align 4
  br label %51

51:                                               ; preds = %63, %50
  %52 = load i32, i32* %12, align 4
  %53 = load i32, i32* %9, align 4
  %54 = icmp slt i32 %52, %53
  br i1 %54, label %55, label %66

55:                                               ; preds = %51
  %56 = load i32, i32* %11, align 4
  %57 = sext i32 %56 to i64
  %58 = getelementptr inbounds [100 x [100 x i32]], [100 x [100 x i32]]* %17, i64 0, i64 %57
  %59 = load i32, i32* %12, align 4
  %60 = sext i32 %59 to i64
  %61 = getelementptr inbounds [100 x i32], [100 x i32]* %58, i64 0, i64 %60
  %62 = call i32 (i8*, ...) @__isoc99_scanf(i8* getelementptr inbounds ([3 x i8], [3 x i8]* @.str.1, i64 0, i64 0), i32* %61)
  br label %63

63:                                               ; preds = %55
  %64 = load i32, i32* %12, align 4
  %65 = add nsw i32 %64, 1
  store i32 %65, i32* %12, align 4
  br label %51

66:                                               ; preds = %51
  br label %67

67:                                               ; preds = %66
  %68 = load i32, i32* %11, align 4
  %69 = add nsw i32 %68, 1
  store i32 %69, i32* %11, align 4
  br label %46

70:                                               ; preds = %46
  store i32 0, i32* %11, align 4
  br label %71

71:                                               ; preds = %118, %70
  %72 = load i32, i32* %11, align 4
  %73 = load i32, i32* %6, align 4
  %74 = icmp slt i32 %72, %73
  br i1 %74, label %75, label %121

75:                                               ; preds = %71
  store i32 0, i32* %12, align 4
  br label %76

76:                                               ; preds = %114, %75
  %77 = load i32, i32* %12, align 4
  %78 = load i32, i32* %9, align 4
  %79 = icmp slt i32 %77, %78
  br i1 %79, label %80, label %117

80:                                               ; preds = %76
  store i32 0, i32* %14, align 4
  br label %81

81:                                               ; preds = %103, %80
  %82 = load i32, i32* %14, align 4
  %83 = load i32, i32* %7, align 4
  %84 = icmp slt i32 %82, %83
  br i1 %84, label %85, label %106

85:                                               ; preds = %81
  %86 = load i32, i32* %10, align 4
  %87 = load i32, i32* %11, align 4
  %88 = sext i32 %87 to i64
  %89 = getelementptr inbounds [100 x [100 x i32]], [100 x [100 x i32]]* %16, i64 0, i64 %88
  %90 = load i32, i32* %14, align 4
  %91 = sext i32 %90 to i64
  %92 = getelementptr inbounds [100 x i32], [100 x i32]* %89, i64 0, i64 %91
  %93 = load i32, i32* %92, align 4
  %94 = load i32, i32* %14, align 4
  %95 = sext i32 %94 to i64
  %96 = getelementptr inbounds [100 x [100 x i32]], [100 x [100 x i32]]* %17, i64 0, i64 %95
  %97 = load i32, i32* %12, align 4
  %98 = sext i32 %97 to i64
  %99 = getelementptr inbounds [100 x i32], [100 x i32]* %96, i64 0, i64 %98
  %100 = load i32, i32* %99, align 4
  %101 = mul nsw i32 %93, %100
  %102 = add nsw i32 %86, %101
  store i32 %102, i32* %10, align 4
  br label %103

103:                                              ; preds = %85
  %104 = load i32, i32* %14, align 4
  %105 = add nsw i32 %104, 1
  store i32 %105, i32* %14, align 4
  br label %81

106:                                              ; preds = %81
  %107 = load i32, i32* %10, align 4
  %108 = load i32, i32* %11, align 4
  %109 = sext i32 %108 to i64
  %110 = getelementptr inbounds [100 x [100 x i32]], [100 x [100 x i32]]* %18, i64 0, i64 %109
  %111 = load i32, i32* %12, align 4
  %112 = sext i32 %111 to i64
  %113 = getelementptr inbounds [100 x i32], [100 x i32]* %110, i64 0, i64 %112
  store i32 %107, i32* %113, align 4
  store i32 0, i32* %10, align 4
  br label %114

114:                                              ; preds = %106
  %115 = load i32, i32* %12, align 4
  %116 = add nsw i32 %115, 1
  store i32 %116, i32* %12, align 4
  br label %76

117:                                              ; preds = %76
  br label %118

118:                                              ; preds = %117
  %119 = load i32, i32* %11, align 4
  %120 = add nsw i32 %119, 1
  store i32 %120, i32* %11, align 4
  br label %71

121:                                              ; preds = %71
  store i32 0, i32* %11, align 4
  br label %122

122:                                              ; preds = %154, %121
  %123 = load i32, i32* %11, align 4
  %124 = load i32, i32* %6, align 4
  %125 = icmp slt i32 %123, %124
  br i1 %125, label %126, label %157

126:                                              ; preds = %122
  store i32 0, i32* %12, align 4
  br label %127

127:                                              ; preds = %141, %126
  %128 = load i32, i32* %12, align 4
  %129 = load i32, i32* %9, align 4
  %130 = sub nsw i32 %129, 1
  %131 = icmp slt i32 %128, %130
  br i1 %131, label %132, label %144

132:                                              ; preds = %127
  %133 = load i32, i32* %11, align 4
  %134 = sext i32 %133 to i64
  %135 = getelementptr inbounds [100 x [100 x i32]], [100 x [100 x i32]]* %18, i64 0, i64 %134
  %136 = load i32, i32* %12, align 4
  %137 = sext i32 %136 to i64
  %138 = getelementptr inbounds [100 x i32], [100 x i32]* %135, i64 0, i64 %137
  %139 = load i32, i32* %138, align 4
  %140 = call i32 (i8*, ...) @printf(i8* getelementptr inbounds ([4 x i8], [4 x i8]* @.str.2, i64 0, i64 0), i32 %139)
  br label %141

141:                                              ; preds = %132
  %142 = load i32, i32* %12, align 4
  %143 = add nsw i32 %142, 1
  store i32 %143, i32* %12, align 4
  br label %127

144:                                              ; preds = %127
  %145 = load i32, i32* %11, align 4
  %146 = sext i32 %145 to i64
  %147 = getelementptr inbounds [100 x [100 x i32]], [100 x [100 x i32]]* %18, i64 0, i64 %146
  %148 = load i32, i32* %9, align 4
  %149 = sub nsw i32 %148, 1
  %150 = sext i32 %149 to i64
  %151 = getelementptr inbounds [100 x i32], [100 x i32]* %147, i64 0, i64 %150
  %152 = load i32, i32* %151, align 4
  %153 = call i32 (i8*, ...) @printf(i8* getelementptr inbounds ([4 x i8], [4 x i8]* @.str.3, i64 0, i64 0), i32 %152)
  br label %154

154:                                              ; preds = %144
  %155 = load i32, i32* %11, align 4
  %156 = add nsw i32 %155, 1
  store i32 %156, i32* %11, align 4
  br label %122

157:                                              ; preds = %122
  ret i32 0
}

declare dso_local i32 @__isoc99_scanf(i8*, ...) #1

declare dso_local i32 @printf(i8*, ...) #1


!llvm.module.flags = !{!0}
!llvm.ident = !{!1}

!0 = !{i32 1, !"wchar_size", i32 4}
!1 = !{!"clang version 10.0.0-4ubuntu1 "}
